target datalayout = "e-m:e-p270:32:32-p271:32:32-p272:64:64-i64:64-i128:128-f80:128-n8:16:32:64-S128"
target triple = "x86_64-pc-linux-gnu"

%struct.Proto = type { ptr, i8, i8, i8, i8, i8, i32, i32, i32, i32, i32, i32, i32, i32, i32, ptr, ptr, ptr, ptr, ptr, ptr, ptr, ptr, ptr }
%struct.lua_State = type { ptr, i8, i8, i8, i8, i16, %union.StkIdRel, ptr, ptr, %union.StkIdRel, %union.StkIdRel, ptr, %union.StkIdRel, ptr, ptr, ptr, %struct.CallInfo, ptr, i64, i32, i32, i32, i32, i32, %struct.anon.2 }
%union.StkIdRel = type { ptr }
%struct.CallInfo = type { %union.StkIdRel, %union.StkIdRel, ptr, ptr, %union.anon, %union.anon.1, i32 }
%union.anon = type { %struct.anon.0 }
%struct.anon.0 = type { ptr, i64, i64 }
%union.anon.1 = type { i32 }
%struct.anon.2 = type { i32, i32 }
%struct.anon = type { ptr, i32, i32 }
%struct.TValue = type { %union.Value, i8 }
%union.Value = type { ptr }
%struct.LClosure = type { ptr, i8, i8, i8, ptr, ptr, [1 x ptr] }
%struct.global_State = type { ptr, ptr, i64, i64, i64, i64, %struct.stringtable, %struct.TValue, %struct.TValue, i32, [6 x i8], i8, i8, i8, i8, i8, i8, ptr, ptr, ptr, ptr, ptr, ptr, ptr, ptr, ptr, ptr, ptr, ptr, ptr, ptr, ptr, ptr, ptr, ptr, ptr, ptr, ptr, [25 x ptr], [9 x ptr], [53 x [2 x ptr]], ptr, ptr }
%struct.stringtable = type { ptr, i32, i32 }
%struct.TString = type { ptr, i8, i8, i8, i8, i32, %union.anon.4, ptr, ptr, ptr }
%union.anon.4 = type { i64 }

@.str.18 = private unnamed_addr constant [2 x i8] c"?\00", align 1
@.str.26 = private unnamed_addr constant [5 x i8] c"hook\00", align 1
@.str.27 = private unnamed_addr constant [5 x i8] c"__gc\00", align 1
@.str.28 = private unnamed_addr constant [11 x i8] c"metamethod\00", align 1
@.str.29 = private unnamed_addr constant [13 x i8] c"for iterator\00", align 1

; Function Attrs: nounwind uwtable
define internal ptr @funcnamefromcode(ptr noundef %0, ptr noundef %1, i32 noundef %2, ptr noundef %3) #0 {
  %5 = alloca ptr, align 8
  %6 = alloca ptr, align 8
  %7 = alloca ptr, align 8
  %8 = alloca i32, align 4
  %9 = alloca ptr, align 8
  %10 = alloca i32, align 4
  %11 = alloca i32, align 4
  %12 = alloca i32, align 4
  store ptr %0, ptr %6, align 8, !tbaa !30
  store ptr %1, ptr %7, align 8, !tbaa !4
  store i32 %2, ptr %8, align 4, !tbaa !9
  store ptr %3, ptr %9, align 8, !tbaa !86
  call void @llvm.lifetime.start.p0(i64 4, ptr %10) #8
  store i32 0, ptr %10, align 4, !tbaa !9
  call void @llvm.lifetime.start.p0(i64 4, ptr %11) #8
  %13 = load ptr, ptr %7, align 8, !tbaa !4
  %14 = getelementptr inbounds nuw %struct.Proto, ptr %13, i32 0, i32 16
  %15 = load ptr, ptr %14, align 8, !tbaa !63
  %16 = load i32, ptr %8, align 4, !tbaa !9
  %17 = sext i32 %16 to i64
  %18 = getelementptr inbounds i32, ptr %15, i64 %17
  %19 = load i32, ptr %18, align 4, !tbaa !9
  store i32 %19, ptr %11, align 4, !tbaa !9
  %20 = load i32, ptr %11, align 4, !tbaa !9
  %21 = lshr i32 %20, 0
  %22 = and i32 %21, 127
  switch i32 %22, label %47 [
    i32 68, label %23
    i32 69, label %23
    i32 76, label %31
    i32 20, label %33
    i32 11, label %33
    i32 12, label %33
    i32 13, label %33
    i32 14, label %33
    i32 15, label %34
    i32 16, label %34
    i32 17, label %34
    i32 18, label %34
    i32 46, label %35
    i32 47, label %35
    i32 48, label %35
    i32 49, label %39
    i32 50, label %40
    i32 52, label %41
    i32 53, label %42
    i32 57, label %43
    i32 58, label %44
    i32 62, label %44
    i32 64, label %44
    i32 59, label %45
    i32 63, label %45
    i32 65, label %45
    i32 54, label %46
    i32 70, label %46
  ]

23:                                               ; preds = %4, %4
  %24 = load ptr, ptr %7, align 8, !tbaa !4
  %25 = load i32, ptr %8, align 4, !tbaa !9
  %26 = load i32, ptr %11, align 4, !tbaa !9
  %27 = lshr i32 %26, 7
  %28 = and i32 %27, 255
  %29 = load ptr, ptr %9, align 8, !tbaa !86
  %30 = call ptr @getobjname(ptr noundef %24, i32 noundef %25, i32 noundef %28, ptr noundef %29)
  store ptr %30, ptr %5, align 8
  store i32 1, ptr %12, align 4
  br label %60

31:                                               ; preds = %4
  %32 = load ptr, ptr %9, align 8, !tbaa !86
  store ptr @.str.29, ptr %32, align 8, !tbaa !58
  store ptr @.str.29, ptr %5, align 8
  store i32 1, ptr %12, align 4
  br label %60

33:                                               ; preds = %4, %4, %4, %4, %4
  store i32 0, ptr %10, align 4, !tbaa !9
  br label %48

34:                                               ; preds = %4, %4, %4, %4
  store i32 1, ptr %10, align 4, !tbaa !9
  br label %48

35:                                               ; preds = %4, %4, %4
  %36 = load i32, ptr %11, align 4, !tbaa !9
  %37 = lshr i32 %36, 24
  %38 = and i32 %37, 255
  store i32 %38, ptr %10, align 4, !tbaa !9
  br label %48

39:                                               ; preds = %4
  store i32 18, ptr %10, align 4, !tbaa !9
  br label %48

40:                                               ; preds = %4
  store i32 19, ptr %10, align 4, !tbaa !9
  br label %48

41:                                               ; preds = %4
  store i32 4, ptr %10, align 4, !tbaa !9
  br label %48

42:                                               ; preds = %4
  store i32 22, ptr %10, align 4, !tbaa !9
  br label %48

43:                                               ; preds = %4
  store i32 5, ptr %10, align 4, !tbaa !9
  br label %48

44:                                               ; preds = %4, %4, %4
  store i32 20, ptr %10, align 4, !tbaa !9
  br label %48

45:                                               ; preds = %4, %4, %4
  store i32 21, ptr %10, align 4, !tbaa !9
  br label %48

46:                                               ; preds = %4, %4
  store i32 24, ptr %10, align 4, !tbaa !9
  br label %48

47:                                               ; preds = %4
  store ptr null, ptr %5, align 8
  store i32 1, ptr %12, align 4
  br label %60

48:                                               ; preds = %46, %45, %44, %43, %42, %41, %40, %39, %35, %34, %33
  %49 = load ptr, ptr %6, align 8, !tbaa !30
  %50 = getelementptr inbounds nuw %struct.lua_State, ptr %49, i32 0, i32 7
  %51 = load ptr, ptr %50, align 8, !tbaa !88
  %52 = getelementptr inbounds nuw %struct.global_State, ptr %51, i32 0, i32 38
  %53 = load i32, ptr %10, align 4, !tbaa !9
  %54 = zext i32 %53 to i64
  %55 = getelementptr inbounds nuw [25 x ptr], ptr %52, i64 0, i64 %54
  %56 = load ptr, ptr %55, align 8, !tbaa !95
  %57 = getelementptr inbounds nuw %struct.TString, ptr %56, i32 0, i32 7
  %58 = getelementptr inbounds i8, ptr %57, i64 2
  %59 = load ptr, ptr %9, align 8, !tbaa !86
  store ptr %58, ptr %59, align 8, !tbaa !58
  store ptr @.str.28, ptr %5, align 8
  store i32 1, ptr %12, align 4
  br label %60

60:                                               ; preds = %48, %47, %31, %23
  call void @llvm.lifetime.end.p0(i64 4, ptr %11) #8
  call void @llvm.lifetime.end.p0(i64 4, ptr %10) #8
  %61 = load ptr, ptr %5, align 8
  ret ptr %61
}

; Function Attrs: nounwind uwtable
define internal i32 @currentpc(ptr noundef %0) #0 {
  %2 = alloca ptr, align 8
  store ptr %0, ptr %2, align 8, !tbaa !47
  %3 = load ptr, ptr %2, align 8, !tbaa !47
  %4 = getelementptr inbounds nuw %struct.CallInfo, ptr %3, i32 0, i32 4
  %5 = getelementptr inbounds nuw %struct.anon, ptr %4, i32 0, i32 0
  %6 = load ptr, ptr %5, align 8, !tbaa !22
  %7 = load ptr, ptr %2, align 8, !tbaa !47
  %8 = getelementptr inbounds nuw %struct.CallInfo, ptr %7, i32 0, i32 0
  %9 = load ptr, ptr %8, align 8, !tbaa !22
  %10 = getelementptr inbounds nuw %struct.TValue, ptr %9, i32 0, i32 0
  %11 = load ptr, ptr %10, align 8, !tbaa !22
  %12 = getelementptr inbounds nuw %struct.LClosure, ptr %11, i32 0, i32 5
  %13 = load ptr, ptr %12, align 8, !tbaa !59
  %14 = getelementptr inbounds nuw %struct.Proto, ptr %13, i32 0, i32 16
  %15 = load ptr, ptr %14, align 8, !tbaa !63
  %16 = ptrtoint ptr %6 to i64
  %17 = ptrtoint ptr %15 to i64
  %18 = sub i64 %16, %17
  %19 = sdiv exact i64 %18, 4
  %20 = trunc i64 %19 to i32
  %21 = sub nsw i32 %20, 1
  ret i32 %21
}

; Function Attrs: nounwind uwtable
define internal ptr @funcnamefromcall(ptr noundef %0, ptr noundef %1, ptr noundef %2) #0 {
  %4 = alloca ptr, align 8
  %5 = alloca ptr, align 8
  %6 = alloca ptr, align 8
  %7 = alloca ptr, align 8
  store ptr %0, ptr %5, align 8, !tbaa !30
  store ptr %1, ptr %6, align 8, !tbaa !47
  store ptr %2, ptr %7, align 8, !tbaa !86
  %8 = load ptr, ptr %6, align 8, !tbaa !47
  %9 = getelementptr inbounds nuw %struct.CallInfo, ptr %8, i32 0, i32 6
  %10 = load i32, ptr %9, align 4, !tbaa !48
  %11 = and i32 %10, 1048576
  %12 = icmp ne i32 %11, 0
  br i1 %12, label %13, label %15

13:                                               ; preds = %3
  %14 = load ptr, ptr %7, align 8, !tbaa !86
  store ptr @.str.18, ptr %14, align 8, !tbaa !58
  store ptr @.str.26, ptr %4, align 8
  br label %43

15:                                               ; preds = %3
  %16 = load ptr, ptr %6, align 8, !tbaa !47
  %17 = getelementptr inbounds nuw %struct.CallInfo, ptr %16, i32 0, i32 6
  %18 = load i32, ptr %17, align 4, !tbaa !48
  %19 = and i32 %18, 16777216
  %20 = icmp ne i32 %19, 0
  br i1 %20, label %21, label %23

21:                                               ; preds = %15
  %22 = load ptr, ptr %7, align 8, !tbaa !86
  store ptr @.str.27, ptr %22, align 8, !tbaa !58
  store ptr @.str.28, ptr %4, align 8
  br label %43

23:                                               ; preds = %15
  %24 = load ptr, ptr %6, align 8, !tbaa !47
  %25 = getelementptr inbounds nuw %struct.CallInfo, ptr %24, i32 0, i32 6
  %26 = load i32, ptr %25, align 4, !tbaa !48
  %27 = and i32 %26, 32768
  %28 = icmp ne i32 %27, 0
  br i1 %28, label %42, label %29

29:                                               ; preds = %23
  %30 = load ptr, ptr %5, align 8, !tbaa !30
  %31 = load ptr, ptr %6, align 8, !tbaa !47
  %32 = getelementptr inbounds nuw %struct.CallInfo, ptr %31, i32 0, i32 0
  %33 = load ptr, ptr %32, align 8, !tbaa !22
  %34 = getelementptr inbounds nuw %struct.TValue, ptr %33, i32 0, i32 0
  %35 = load ptr, ptr %34, align 8, !tbaa !22
  %36 = getelementptr inbounds nuw %struct.LClosure, ptr %35, i32 0, i32 5
  %37 = load ptr, ptr %36, align 8, !tbaa !59
  %38 = load ptr, ptr %6, align 8, !tbaa !47
  %39 = call i32 @currentpc(ptr noundef %38)
  %40 = load ptr, ptr %7, align 8, !tbaa !86
  %41 = call ptr @funcnamefromcode(ptr noundef %30, ptr noundef %37, i32 noundef %39, ptr noundef %40)
  store ptr %41, ptr %4, align 8
  br label %43

42:                                               ; preds = %23
  store ptr null, ptr %4, align 8
  br label %43

43:                                               ; preds = %42, %29, %21, %13
  %44 = load ptr, ptr %4, align 8
  ret ptr %44
}