; Function Attrs: nounwind uwtable
define internal fastcc ptr @funcnamefromcall(ptr noundef readonly captures(none) %0, ptr noundef readonly captures(none) %1, ptr noundef writeonly captures(none) %2) unnamed_addr #6 {
  %4 = getelementptr inbounds nuw i8, ptr %1, i64 60
  %5 = load i32, ptr %4, align 4, !tbaa !40
  %6 = and i32 %5, 1048576
  %.not = icmp eq i32 %6, 0
  br i1 %.not, label %8, label %7

7:                                                ; preds = %3
  store ptr @.str.18, ptr %2, align 8, !tbaa !85
  br label %funcnamefromcode.exit

8:                                                ; preds = %3
  %9 = and i32 %5, 16777216
  %.not10 = icmp eq i32 %9, 0
  br i1 %.not10, label %11, label %10

10:                                               ; preds = %8
  store ptr @.str.27, ptr %2, align 8, !tbaa !85
  br label %funcnamefromcode.exit

11:                                               ; preds = %8
  %12 = and i32 %5, 32768
  %.not11 = icmp eq i32 %12, 0
  br i1 %.not11, label %13, label %funcnamefromcode.exit

13:                                               ; preds = %11
  %14 = load ptr, ptr %1, align 8, !tbaa !24
  %15 = load ptr, ptr %14, align 8, !tbaa !24
  %16 = getelementptr inbounds nuw i8, ptr %15, i64 24
  %17 = load ptr, ptr %16, align 8, !tbaa !45
  %18 = getelementptr i8, ptr %1, i64 32
  %.val12 = load ptr, ptr %18, align 8, !tbaa !24
  %19 = getelementptr i8, ptr %17, i64 64
  %.val.val.val.val = load ptr, ptr %19, align 8, !tbaa !49
  %20 = ptrtoint ptr %.val12 to i64
  %21 = ptrtoint ptr %.val.val.val.val to i64
  %22 = sub i64 %20, %21
  %23 = lshr exact i64 %22, 2
  %24 = trunc i64 %23 to i32
  %25 = add nsw i32 %24, -1
  %26 = sext i32 %25 to i64
  %27 = getelementptr inbounds i32, ptr %.val.val.val.val, i64 %26
  %28 = load i32, ptr %27, align 4, !tbaa !23
  %29 = and i32 %28, 127
  switch i32 %29, label %funcnamefromcode.exit [
    i32 68, label %30
    i32 69, label %30
    i32 76, label %34
    i32 20, label %47
    i32 11, label %47
    i32 12, label %47
    i32 13, label %47
    i32 14, label %47
    i32 15, label %35
    i32 16, label %35
    i32 17, label %35
    i32 18, label %35
    i32 46, label %36
    i32 47, label %36
    i32 48, label %36
    i32 49, label %39
    i32 50, label %40
    i32 52, label %41
    i32 53, label %42
    i32 57, label %43
    i32 58, label %44
    i32 62, label %44
    i32 64, label %44
    i32 59, label %45
    i32 63, label %45
    i32 65, label %45
    i32 54, label %46
    i32 70, label %46
  ]

30:                                               ; preds = %13, %13
  %31 = lshr i32 %28, 7
  %32 = and i32 %31, 255
  %33 = tail call fastcc ptr @getobjname(ptr noundef nonnull %17, i32 noundef range(i32 -2147483648, 2147483647) %25, i32 noundef %32, ptr noundef %2)
  br label %funcnamefromcode.exit

34:                                               ; preds = %13
  store ptr @.str.29, ptr %2, align 8, !tbaa !85
  br label %funcnamefromcode.exit

35:                                               ; preds = %13, %13, %13, %13
  br label %47

36:                                               ; preds = %13, %13, %13
  %37 = lshr i32 %28, 24
  %38 = zext nneg i32 %37 to i64
  br label %47

39:                                               ; preds = %13
  br label %47

40:                                               ; preds = %13
  br label %47

41:                                               ; preds = %13
  br label %47

42:                                               ; preds = %13
  br label %47

43:                                               ; preds = %13
  br label %47

44:                                               ; preds = %13, %13, %13
  br label %47

45:                                               ; preds = %13, %13, %13
  br label %47

46:                                               ; preds = %13, %13
  br label %47

47:                                               ; preds = %46, %45, %44, %43, %42, %41, %40, %39, %36, %35, %13, %13, %13, %13, %13
  %.012.i = phi i64 [ 24, %46 ], [ 21, %45 ], [ 20, %44 ], [ 5, %43 ], [ 22, %42 ], [ 4, %41 ], [ 19, %40 ], [ 18, %39 ], [ %38, %36 ], [ 1, %35 ], [ 0, %13 ], [ 0, %13 ], [ 0, %13 ], [ 0, %13 ], [ 0, %13 ]
  %48 = getelementptr inbounds nuw i8, ptr %0, i64 24
  %49 = load ptr, ptr %48, align 8, !tbaa !86
  %50 = getelementptr inbounds nuw i8, ptr %49, i64 280
  %51 = getelementptr inbounds nuw [25 x ptr], ptr %50, i64 0, i64 %.012.i
  %52 = load ptr, ptr %51, align 8, !tbaa !87
  %53 = getelementptr inbounds nuw i8, ptr %52, i64 26
  store ptr %53, ptr %2, align 8, !tbaa !85
  br label %funcnamefromcode.exit

funcnamefromcode.exit:                            ; preds = %47, %34, %30, %13, %11, %10, %7
  %.0 = phi ptr [ @.str.26, %7 ], [ @.str.28, %10 ], [ null, %11 ], [ @.str.28, %47 ], [ @.str.29, %34 ], [ %33, %30 ], [ null, %13 ]
  ret ptr %.0
}